; Function Attrs: nounwind uwtable
define internal i32 @KEM_encaps_loop(ptr noundef readonly captures(none) %0) #0 {
  %2 = alloca i64, align 8
  %3 = alloca i64, align 8
  %4 = load ptr, ptr %0, align 8, !tbaa !189
  %5 = getelementptr inbounds nuw i8, ptr %4, i64 2120
  %6 = load i32, ptr @testnum, align 4, !tbaa !13
  %7 = zext i32 %6 to i64
  %8 = getelementptr inbounds nuw [111 x ptr], ptr %5, i64 0, i64 %7
  %9 = load ptr, ptr %8, align 8, !tbaa !15
  call void @llvm.lifetime.start.p0(i64 8, ptr nonnull %2) #14
  %10 = getelementptr inbounds nuw i8, ptr %4, i64 3896
  %11 = getelementptr inbounds nuw [111 x i64], ptr %10, i64 0, i64 %7
  %12 = load i64, ptr %11, align 8, !tbaa !28
  store i64 %12, ptr %2, align 8, !tbaa !28
  call void @llvm.lifetime.start.p0(i64 8, ptr nonnull %3) #14
  %13 = getelementptr inbounds nuw i8, ptr %4, i64 4784
  %14 = getelementptr inbounds nuw [111 x i64], ptr %13, i64 0, i64 %7
  %15 = load i64, ptr %14, align 8, !tbaa !28
  store i64 %15, ptr %3, align 8, !tbaa !28
  %16 = getelementptr inbounds nuw i8, ptr %4, i64 5672
  %17 = getelementptr inbounds nuw [111 x ptr], ptr %16, i64 0, i64 %7
  %18 = load ptr, ptr %17, align 8, !tbaa !23
  %19 = getelementptr inbounds nuw i8, ptr %4, i64 6560
  %20 = getelementptr inbounds nuw [111 x ptr], ptr %19, i64 0, i64 %7
  %21 = load ptr, ptr %20, align 8, !tbaa !23
  %22 = load volatile i32, ptr @run, align 4, !tbaa !13
  %.not13 = icmp eq i32 %22, 0
  br i1 %.not13, label %.critedge, label %.lr.ph

.lr.ph:                                           ; preds = %1, %28
  %.014 = phi i32 [ %29, %28 ], [ 0, %1 ]
  %.b = load i1, ptr @testmode, align 4
  %23 = select i1 %.b, i32 1, i32 2147483647
  %24 = icmp samesign ult i32 %.014, %23
  br i1 %24, label %25, label %.critedge

25:                                               ; preds = %.lr.ph
  %26 = call i32 @EVP_PKEY_encapsulate(ptr noundef %9, ptr noundef %18, ptr noundef nonnull %2, ptr noundef %21, ptr noundef nonnull %3) #14
  %27 = icmp slt i32 %26, 1
  br i1 %27, label %.critedge, label %28

28:                                               ; preds = %25
  %29 = add nuw nsw i32 %.014, 1
  %30 = load volatile i32, ptr @run, align 4, !tbaa !13
  %.not = icmp eq i32 %30, 0
  br i1 %.not, label %.critedge, label %.lr.ph, !llvm.loop !232

.critedge:                                        ; preds = %25, %28, %.lr.ph, %1
  %.012 = phi i32 [ 0, %1 ], [ %.014, %.lr.ph ], [ %29, %28 ], [ -1, %25 ]
  call void @llvm.lifetime.end.p0(i64 8, ptr nonnull %3) #14
  call void @llvm.lifetime.end.p0(i64 8, ptr nonnull %2) #14
  ret i32 %.012
}